target datalayout = "e-m:e-p270:32:32-p271:32:32-p272:64:64-i64:64-i128:128-f80:128-n8:16:32:64-S128"
target triple = "x86_64-pc-linux-gnu"

%struct.Kit_Sop_t_ = type { i32, i32, ptr }
%struct.Vec_Int_t_ = type { i32, i32, ptr }

; Function Attrs: inlinehint nounwind uwtable
define internal void @Kit_SopPushCube(ptr noundef %0, i32 noundef %1) #2 {
  %3 = alloca ptr, align 8
  %4 = alloca i32, align 4
  store ptr %0, ptr %3, align 8, !tbaa !3
  store i32 %1, ptr %4, align 4, !tbaa !10
  %5 = load i32, ptr %4, align 4, !tbaa !10
  %6 = load ptr, ptr %3, align 8, !tbaa !3
  %7 = getelementptr inbounds nuw %struct.Kit_Sop_t_, ptr %6, i32 0, i32 2
  %8 = load ptr, ptr %7, align 8, !tbaa !15
  %9 = load ptr, ptr %3, align 8, !tbaa !3
  %10 = getelementptr inbounds nuw %struct.Kit_Sop_t_, ptr %9, i32 0, i32 1
  %11 = load i32, ptr %10, align 4, !tbaa !12
  %12 = add nsw i32 %11, 1
  store i32 %12, ptr %10, align 4, !tbaa !12
  %13 = sext i32 %11 to i64
  %14 = getelementptr inbounds i32, ptr %8, i64 %13
  store i32 %5, ptr %14, align 4, !tbaa !10
  ret void
}

; Function Attrs: inlinehint nounwind uwtable
define internal i32 @Kit_CubeSharp(i32 noundef %0, i32 noundef %1) #2 {
  %3 = alloca i32, align 4
  %4 = alloca i32, align 4
  store i32 %0, ptr %3, align 4, !tbaa !10
  store i32 %1, ptr %4, align 4, !tbaa !10
  %5 = load i32, ptr %3, align 4, !tbaa !10
  %6 = load i32, ptr %4, align 4, !tbaa !10
  %7 = xor i32 %6, -1
  %8 = and i32 %5, %7
  ret i32 %8
}

; Function Attrs: inlinehint nounwind uwtable
define internal i32 @Kit_CubeContains(i32 noundef %0, i32 noundef %1) #2 {
  %3 = alloca i32, align 4
  %4 = alloca i32, align 4
  store i32 %0, ptr %3, align 4, !tbaa !10
  store i32 %1, ptr %4, align 4, !tbaa !10
  %5 = load i32, ptr %3, align 4, !tbaa !10
  %6 = load i32, ptr %4, align 4, !tbaa !10
  %7 = and i32 %5, %6
  %8 = load i32, ptr %4, align 4, !tbaa !10
  %9 = icmp eq i32 %7, %8
  %10 = zext i1 %9 to i32
  ret i32 %10
}

; Function Attrs: inlinehint nounwind uwtable
define internal ptr @Vec_IntFetch(ptr noundef %0, i32 noundef %1) #2 {
  %3 = alloca ptr, align 8
  %4 = alloca ptr, align 8
  %5 = alloca i32, align 4
  store ptr %0, ptr %4, align 8, !tbaa !8
  store i32 %1, ptr %5, align 4, !tbaa !10
  %6 = load i32, ptr %5, align 4, !tbaa !10
  %7 = icmp eq i32 %6, 0
  br i1 %7, label %8, label %9

8:                                                ; preds = %2
  store ptr null, ptr %3, align 8
  br label %36

9:                                                ; preds = %2
  %10 = load i32, ptr %5, align 4, !tbaa !10
  %11 = load ptr, ptr %4, align 8, !tbaa !8
  %12 = getelementptr inbounds nuw %struct.Vec_Int_t_, ptr %11, i32 0, i32 1
  %13 = load i32, ptr %12, align 4, !tbaa !18
  %14 = add nsw i32 %13, %10
  store i32 %14, ptr %12, align 4, !tbaa !18
  %15 = load ptr, ptr %4, align 8, !tbaa !8
  %16 = getelementptr inbounds nuw %struct.Vec_Int_t_, ptr %15, i32 0, i32 1
  %17 = load i32, ptr %16, align 4, !tbaa !18
  %18 = load ptr, ptr %4, align 8, !tbaa !8
  %19 = getelementptr inbounds nuw %struct.Vec_Int_t_, ptr %18, i32 0, i32 0
  %20 = load i32, ptr %19, align 8, !tbaa !20
  %21 = icmp sgt i32 %17, %20
  br i1 %21, label %22, label %23

22:                                               ; preds = %9
  store ptr null, ptr %3, align 8
  br label %36

23:                                               ; preds = %9
  %24 = load ptr, ptr %4, align 8, !tbaa !8
  %25 = getelementptr inbounds nuw %struct.Vec_Int_t_, ptr %24, i32 0, i32 2
  %26 = load ptr, ptr %25, align 8, !tbaa !21
  %27 = load ptr, ptr %4, align 8, !tbaa !8
  %28 = getelementptr inbounds nuw %struct.Vec_Int_t_, ptr %27, i32 0, i32 1
  %29 = load i32, ptr %28, align 4, !tbaa !18
  %30 = sext i32 %29 to i64
  %31 = getelementptr inbounds i32, ptr %26, i64 %30
  %32 = load i32, ptr %5, align 4, !tbaa !10
  %33 = sext i32 %32 to i64
  %34 = sub i64 0, %33
  %35 = getelementptr inbounds i32, ptr %31, i64 %34
  store ptr %35, ptr %3, align 8
  br label %36

36:                                               ; preds = %23, %22, %8
  %37 = load ptr, ptr %3, align 8
  ret ptr %37
}

; Function Attrs: inlinehint nounwind uwtable
define internal i32 @Kit_SopCubeNum(ptr noundef %0) #2 {
  %2 = alloca ptr, align 8
  store ptr %0, ptr %2, align 8, !tbaa !3
  %3 = load ptr, ptr %2, align 8, !tbaa !3
  %4 = getelementptr inbounds nuw %struct.Kit_Sop_t_, ptr %3, i32 0, i32 1
  %5 = load i32, ptr %4, align 4, !tbaa !12
  ret i32 %5
}

; Function Attrs: inlinehint nounwind uwtable
define internal i32 @Kit_SopCube(ptr noundef %0, i32 noundef %1) #2 {
  %3 = alloca ptr, align 8
  %4 = alloca i32, align 4
  store ptr %0, ptr %3, align 8, !tbaa !3
  store i32 %1, ptr %4, align 4, !tbaa !10
  %5 = load ptr, ptr %3, align 8, !tbaa !3
  %6 = getelementptr inbounds nuw %struct.Kit_Sop_t_, ptr %5, i32 0, i32 2
  %7 = load ptr, ptr %6, align 8, !tbaa !15
  %8 = load i32, ptr %4, align 4, !tbaa !10
  %9 = sext i32 %8 to i64
  %10 = getelementptr inbounds i32, ptr %7, i64 %9
  %11 = load i32, ptr %10, align 4, !tbaa !10
  ret i32 %11
}

; Function Attrs: nounwind uwtable
define void @Kit_SopDivideByCube(ptr noundef %0, ptr noundef %1, ptr noundef %2, ptr noundef %3, ptr noundef %4) #0 {
  %6 = alloca ptr, align 8
  %7 = alloca ptr, align 8
  %8 = alloca ptr, align 8
  %9 = alloca ptr, align 8
  %10 = alloca ptr, align 8
  %11 = alloca i32, align 4
  %12 = alloca i32, align 4
  %13 = alloca i32, align 4
  store ptr %0, ptr %6, align 8, !tbaa !3
  store ptr %1, ptr %7, align 8, !tbaa !3
  store ptr %2, ptr %8, align 8, !tbaa !3
  store ptr %3, ptr %9, align 8, !tbaa !3
  store ptr %4, ptr %10, align 8, !tbaa !8
  call void @llvm.lifetime.start.p0(i64 4, ptr %11) #3
  call void @llvm.lifetime.start.p0(i64 4, ptr %12) #3
  call void @llvm.lifetime.start.p0(i64 4, ptr %13) #3
  %14 = load ptr, ptr %7, align 8, !tbaa !3
  %15 = call i32 @Kit_SopCube(ptr noundef %14, i32 noundef 0)
  store i32 %15, ptr %12, align 4, !tbaa !10
  %16 = load ptr, ptr %8, align 8, !tbaa !3
  %17 = getelementptr inbounds nuw %struct.Kit_Sop_t_, ptr %16, i32 0, i32 1
  store i32 0, ptr %17, align 4, !tbaa !12
  %18 = load ptr, ptr %10, align 8, !tbaa !8
  %19 = load ptr, ptr %6, align 8, !tbaa !3
  %20 = call i32 @Kit_SopCubeNum(ptr noundef %19)
  %21 = call ptr @Vec_IntFetch(ptr noundef %18, i32 noundef %20)
  %22 = load ptr, ptr %8, align 8, !tbaa !3
  %23 = getelementptr inbounds nuw %struct.Kit_Sop_t_, ptr %22, i32 0, i32 2
  store ptr %21, ptr %23, align 8, !tbaa !15
  %24 = load ptr, ptr %9, align 8, !tbaa !3
  %25 = getelementptr inbounds nuw %struct.Kit_Sop_t_, ptr %24, i32 0, i32 1
  store i32 0, ptr %25, align 4, !tbaa !12
  %26 = load ptr, ptr %10, align 8, !tbaa !8
  %27 = load ptr, ptr %6, align 8, !tbaa !3
  %28 = call i32 @Kit_SopCubeNum(ptr noundef %27)
  %29 = call ptr @Vec_IntFetch(ptr noundef %26, i32 noundef %28)
  %30 = load ptr, ptr %9, align 8, !tbaa !3
  %31 = getelementptr inbounds nuw %struct.Kit_Sop_t_, ptr %30, i32 0, i32 2
  store ptr %29, ptr %31, align 8, !tbaa !15
  store i32 0, ptr %13, align 4, !tbaa !10
  br label %32

32:                                               ; preds = %58, %5
  %33 = load i32, ptr %13, align 4, !tbaa !10
  %34 = load ptr, ptr %6, align 8, !tbaa !3
  %35 = call i32 @Kit_SopCubeNum(ptr noundef %34)
  %36 = icmp slt i32 %33, %35
  br i1 %36, label %37, label %42

37:                                               ; preds = %32
  %38 = load ptr, ptr %6, align 8, !tbaa !3
  %39 = load i32, ptr %13, align 4, !tbaa !10
  %40 = call i32 @Kit_SopCube(ptr noundef %38, i32 noundef %39)
  store i32 %40, ptr %11, align 4, !tbaa !10
  %41 = icmp ne i32 %40, 0
  br label %42

42:                                               ; preds = %37, %32
  %43 = phi i1 [ false, %32 ], [ %41, %37 ]
  br i1 %43, label %44, label %61

44:                                               ; preds = %42
  %45 = load i32, ptr %11, align 4, !tbaa !10
  %46 = load i32, ptr %12, align 4, !tbaa !10
  %47 = call i32 @Kit_CubeContains(i32 noundef %45, i32 noundef %46)
  %48 = icmp ne i32 %47, 0
  br i1 %48, label %49, label %54

49:                                               ; preds = %44
  %50 = load ptr, ptr %8, align 8, !tbaa !3
  %51 = load i32, ptr %11, align 4, !tbaa !10
  %52 = load i32, ptr %12, align 4, !tbaa !10
  %53 = call i32 @Kit_CubeSharp(i32 noundef %51, i32 noundef %52)
  call void @Kit_SopPushCube(ptr noundef %50, i32 noundef %53)
  br label %57

54:                                               ; preds = %44
  %55 = load ptr, ptr %9, align 8, !tbaa !3
  %56 = load i32, ptr %11, align 4, !tbaa !10
  call void @Kit_SopPushCube(ptr noundef %55, i32 noundef %56)
  br label %57

57:                                               ; preds = %54, %49
  br label %58

58:                                               ; preds = %57
  %59 = load i32, ptr %13, align 4, !tbaa !10
  %60 = add nsw i32 %59, 1
  store i32 %60, ptr %13, align 4, !tbaa !10
  br label %32, !llvm.loop !25

61:                                               ; preds = %42
  call void @llvm.lifetime.end.p0(i64 4, ptr %13) #3
  call void @llvm.lifetime.end.p0(i64 4, ptr %12) #3
  call void @llvm.lifetime.end.p0(i64 4, ptr %11) #3
  ret void
}