; Function Attrs: nofree norecurse nosync nounwind memory(readwrite, inaccessiblemem: none) uwtable
define void @Kit_SopDivideByCube(ptr noundef readonly captures(none) %0, ptr noundef readonly captures(none) %1, ptr noundef captures(none) initializes((4, 16)) %2, ptr noundef captures(none) initializes((4, 16)) %3, ptr noundef captures(none) %4) local_unnamed_addr #0 {
  %6 = getelementptr i8, ptr %1, i64 8
  %.val25 = load ptr, ptr %6, align 8, !tbaa !12
  %7 = load i32, ptr %.val25, align 4, !tbaa !15
  %8 = getelementptr inbounds nuw i8, ptr %2, i64 4
  store i32 0, ptr %8, align 4, !tbaa !3
  %9 = getelementptr i8, ptr %0, i64 4
  %.val23 = load i32, ptr %9, align 4, !tbaa !3
  %10 = icmp eq i32 %.val23, 0
  br i1 %10, label %Vec_IntFetch.exit, label %11

11:                                               ; preds = %5
  %12 = getelementptr inbounds nuw i8, ptr %4, i64 4
  %13 = load i32, ptr %12, align 4, !tbaa !10
  %14 = add nsw i32 %13, %.val23
  store i32 %14, ptr %12, align 4, !tbaa !10
  %15 = load i32, ptr %4, align 8, !tbaa !13
  %16 = icmp sgt i32 %14, %15
  br i1 %16, label %Vec_IntFetch.exit, label %17

17:                                               ; preds = %11
  %18 = getelementptr inbounds nuw i8, ptr %4, i64 8
  %19 = load ptr, ptr %18, align 8, !tbaa !14
  %20 = sext i32 %14 to i64
  %21 = getelementptr inbounds i32, ptr %19, i64 %20
  %22 = sext i32 %.val23 to i64
  %23 = sub nsw i64 0, %22
  %24 = getelementptr inbounds i32, ptr %21, i64 %23
  br label %Vec_IntFetch.exit

Vec_IntFetch.exit:                                ; preds = %5, %11, %17
  %.0.i = phi ptr [ %24, %17 ], [ null, %5 ], [ null, %11 ]
  %25 = getelementptr inbounds nuw i8, ptr %2, i64 8
  store ptr %.0.i, ptr %25, align 8, !tbaa !12
  %26 = getelementptr inbounds nuw i8, ptr %3, i64 4
  store i32 0, ptr %26, align 4, !tbaa !3
  %.val22 = load i32, ptr %9, align 4, !tbaa !3
  %27 = icmp eq i32 %.val22, 0
  br i1 %27, label %Vec_IntFetch.exit27.thread, label %29

Vec_IntFetch.exit27.thread:                       ; preds = %Vec_IntFetch.exit
  %28 = getelementptr inbounds nuw i8, ptr %3, i64 8
  store ptr null, ptr %28, align 8, !tbaa !12
  br label %.critedge

29:                                               ; preds = %Vec_IntFetch.exit
  %30 = getelementptr inbounds nuw i8, ptr %4, i64 4
  %31 = load i32, ptr %30, align 4, !tbaa !10
  %32 = add nsw i32 %31, %.val22
  store i32 %32, ptr %30, align 4, !tbaa !10
  %33 = load i32, ptr %4, align 8, !tbaa !13
  %34 = icmp sgt i32 %32, %33
  br i1 %34, label %Vec_IntFetch.exit27, label %35

35:                                               ; preds = %29
  %36 = getelementptr inbounds nuw i8, ptr %4, i64 8
  %37 = load ptr, ptr %36, align 8, !tbaa !14
  %38 = sext i32 %32 to i64
  %39 = getelementptr inbounds i32, ptr %37, i64 %38
  %40 = sext i32 %.val22 to i64
  %41 = sub nsw i64 0, %40
  %42 = getelementptr inbounds i32, ptr %39, i64 %41
  br label %Vec_IntFetch.exit27

Vec_IntFetch.exit27:                              ; preds = %29, %35
  %.0.i26 = phi ptr [ %42, %35 ], [ null, %29 ]
  %43 = getelementptr inbounds nuw i8, ptr %3, i64 8
  store ptr %.0.i26, ptr %43, align 8, !tbaa !12
  %44 = icmp sgt i32 %.val22, 0
  br i1 %44, label %.lr.ph, label %.critedge

.lr.ph:                                           ; preds = %Vec_IntFetch.exit27
  %45 = getelementptr i8, ptr %0, i64 8
  %.val24 = load ptr, ptr %45, align 8, !tbaa !12
  %46 = xor i32 %7, -1
  br label %47

47:                                               ; preds = %.lr.ph, %60
  %indvars.iv = phi i64 [ 0, %.lr.ph ], [ %indvars.iv.next, %60 ]
  %48 = getelementptr inbounds nuw i32, ptr %.val24, i64 %indvars.iv
  %49 = load i32, ptr %48, align 4, !tbaa !15
  %.not = icmp eq i32 %49, 0
  br i1 %.not, label %.critedge, label %50

50:                                               ; preds = %47
  %51 = and i32 %49, %7
  %.not28 = icmp eq i32 %51, %7
  br i1 %.not28, label %52, label %57

52:                                               ; preds = %50
  %53 = and i32 %49, %46
  %54 = load ptr, ptr %25, align 8, !tbaa !12
  %55 = load i32, ptr %8, align 4, !tbaa !3
  %56 = add nsw i32 %55, 1
  store i32 %56, ptr %8, align 4, !tbaa !3
  br label %60

57:                                               ; preds = %50
  %58 = load i32, ptr %26, align 4, !tbaa !3
  %59 = add nsw i32 %58, 1
  store i32 %59, ptr %26, align 4, !tbaa !3
  br label %60

60:                                               ; preds = %52, %57
  %.sink37 = phi i32 [ %55, %52 ], [ %58, %57 ]
  %.sink35 = phi ptr [ %54, %52 ], [ %.0.i26, %57 ]
  %.sink = phi i32 [ %53, %52 ], [ %49, %57 ]
  %61 = sext i32 %.sink37 to i64
  %62 = getelementptr inbounds i32, ptr %.sink35, i64 %61
  store i32 %.sink, ptr %62, align 4, !tbaa !15
  %indvars.iv.next = add nuw nsw i64 %indvars.iv, 1
  %.val = load i32, ptr %9, align 4, !tbaa !3
  %63 = sext i32 %.val to i64
  %64 = icmp slt i64 %indvars.iv.next, %63
  br i1 %64, label %47, label %.critedge, !llvm.loop !21

.critedge:                                        ; preds = %47, %60, %Vec_IntFetch.exit27.thread, %Vec_IntFetch.exit27
  ret void
}